target datalayout = "e-m:e-p270:32:32-p271:32:32-p272:64:64-i64:64-i128:128-f80:128-n8:16:32:64-S128"
target triple = "x86_64-unknown-linux-gnu"

%"class.QuantLib::Money::Settings" = type { i32, %"class.QuantLib::Currency" }
%"class.QuantLib::Currency" = type { %"class.boost::shared_ptr" }
%"class.boost::shared_ptr" = type { ptr, %"class.boost::detail::shared_count" }
%"class.boost::detail::shared_count" = type { ptr }

@__dso_handle = external hidden global i8
@_ZZN8QuantLib9SingletonINS_5Money8SettingsESt17integral_constantIbLb0EEE8instanceEvE8instance = linkonce_odr global %"class.QuantLib::Money::Settings" zeroinitializer, comdat, align 8
@_ZGVZN8QuantLib9SingletonINS_5Money8SettingsESt17integral_constantIbLb0EEE8instanceEvE8instance = linkonce_odr global i64 0, comdat, align 8

; Function Attrs: mustprogress nounwind uwtable
define noundef nonnull align 4 dereferenceable(4) ptr @_ZN8QuantLib5Money8Settings14conversionTypeEv(ptr noundef nonnull align 8 dereferenceable(24) %this) #2 align 2 {
entry:
  %this.addr = alloca ptr, align 8
  store ptr %this, ptr %this.addr, align 8, !tbaa !3
  %this1 = load ptr, ptr %this.addr, align 8
  %conversionType_ = getelementptr inbounds nuw %"class.QuantLib::Money::Settings", ptr %this1, i32 0, i32 0
  ret ptr %conversionType_
}

; Function Attrs: mustprogress nounwind uwtable
define linkonce_odr noundef nonnull align 8 dereferenceable(24) ptr @_ZN8QuantLib9SingletonINS_5Money8SettingsESt17integral_constantIbLb0EEE8instanceEv() #2 comdat align 2 {
entry:
  %0 = load atomic i8, ptr @_ZGVZN8QuantLib9SingletonINS_5Money8SettingsESt17integral_constantIbLb0EEE8instanceEvE8instance acquire, align 8
  %guard.uninitialized = icmp eq i8 %0, 0
  br i1 %guard.uninitialized, label %init.check, label %init.end, !prof !15

init.check:                                       ; preds = %entry
  %1 = call i32 @__cxa_guard_acquire(ptr @_ZGVZN8QuantLib9SingletonINS_5Money8SettingsESt17integral_constantIbLb0EEE8instanceEvE8instance) #9
  %tobool = icmp ne i32 %1, 0
  br i1 %tobool, label %init, label %init.end

init:                                             ; preds = %init.check
  %2 = call i32 @__cxa_atexit(ptr @_ZN8QuantLib5Money8SettingsD2Ev, ptr @_ZZN8QuantLib9SingletonINS_5Money8SettingsESt17integral_constantIbLb0EEE8instanceEvE8instance, ptr @__dso_handle) #9
  call void @__cxa_guard_release(ptr @_ZGVZN8QuantLib9SingletonINS_5Money8SettingsESt17integral_constantIbLb0EEE8instanceEvE8instance) #9
  br label %init.end

init.end:                                         ; preds = %init, %init.check, %entry
  ret ptr @_ZZN8QuantLib9SingletonINS_5Money8SettingsESt17integral_constantIbLb0EEE8instanceEvE8instance
}

; Function Attrs: mustprogress uwtable
define noundef i32 @_ZNK8QuantLib5Money19ConversionTypeProxycvNS0_14ConversionTypeEEv(ptr noundef nonnull align 1 dereferenceable(1) %this) #0 align 2 {
entry:
  %this.addr = alloca ptr, align 8
  store ptr %this, ptr %this.addr, align 8, !tbaa !3
  %call = call noundef nonnull align 8 dereferenceable(24) ptr @_ZN8QuantLib9SingletonINS_5Money8SettingsESt17integral_constantIbLb0EEE8instanceEv()
  %call2 = call noundef nonnull align 4 dereferenceable(4) ptr @_ZN8QuantLib5Money8Settings14conversionTypeEv(ptr noundef nonnull align 8 dereferenceable(24) %call)
  %0 = load i32, ptr %call2, align 4, !tbaa !13
  ret i32 %0
}